target datalayout = "e-m:e-p270:32:32-p271:32:32-p272:64:64-i64:64-i128:128-f80:128-n8:16:32:64-S128"
target triple = "x86_64-pc-linux-gnu"

%"class.cvc5::context::ContextObj" = type { ptr, ptr, ptr, ptr, ptr }
%"struct.std::__detail::_Hash_node_base" = type { ptr }
%"struct.std::__detail::_Prime_rehash_policy" = type { float, i64 }
%"class.cvc5::context::CDO" = type { %"class.cvc5::context::ContextObj", i64 }
%"class.cvc5::context::CDO.0" = type <{ %"class.cvc5::context::ContextObj", i32, [4 x i8] }>
%"struct.std::_Rb_tree_header" = type { %"struct.std::_Rb_tree_node_base", i64 }
%"struct.std::_Rb_tree_node_base" = type { i32, ptr, ptr, ptr }
%"class.cvc5::context::CDO.6" = type <{ %"class.cvc5::context::ContextObj", i8, [7 x i8] }>
%"class.cvc5::internal::theory::uf::CardinalityExtension::SortModel" = type { %"class.cvc5::internal::EnvObj", %"class.std::map.12", %"class.std::map.17", %"class.std::map.23", %"class.cvc5::internal::TypeNode", ptr, ptr, ptr, %"class.cvc5::context::CDO", %"class.std::vector", %"class.cvc5::context::CDHashMap.31", %"class.cvc5::context::CDHashMap.31", %"class.cvc5::context::CDO.0", %"class.std::vector.46", %"class.cvc5::context::CDO.0", %"class.cvc5::context::CDO.0", %"class.std::map.51", %"class.cvc5::context::CDO.6", %"class.std::map.57", %"class.cvc5::context::CDO.0", %"class.std::vector.46", %"class.cvc5::context::CDO.6", %"class.std::unique_ptr" }
%"class.cvc5::internal::EnvObj" = type { ptr, ptr }
%"class.std::map.12" = type { %"class.std::_Rb_tree.13" }
%"class.std::_Rb_tree.13" = type { %"struct.std::_Rb_tree<cvc5::internal::NodeTemplate<true>, std::pair<const cvc5::internal::NodeTemplate<true>, std::vector<int>>, std::_Select1st<std::pair<const cvc5::internal::NodeTemplate<true>, std::vector<int>>>, std::less<cvc5::internal::NodeTemplate<true>>>::_Rb_tree_impl" }
%"struct.std::_Rb_tree<cvc5::internal::NodeTemplate<true>, std::pair<const cvc5::internal::NodeTemplate<true>, std::vector<int>>, std::_Select1st<std::pair<const cvc5::internal::NodeTemplate<true>, std::vector<int>>>, std::less<cvc5::internal::NodeTemplate<true>>>::_Rb_tree_impl" = type { [8 x i8], %"struct.std::_Rb_tree_header" }
%"class.std::map.17" = type { %"class.std::_Rb_tree.18" }
%"class.std::_Rb_tree.18" = type { %"struct.std::_Rb_tree<cvc5::internal::TypeNode, std::pair<const cvc5::internal::TypeNode, std::map<int, std::vector<cvc5::internal::NodeTemplate<true>>>>, std::_Select1st<std::pair<const cvc5::internal::TypeNode, std::map<int, std::vector<cvc5::internal::NodeTemplate<true>>>>>, std::less<cvc5::internal::TypeNode>>::_Rb_tree_impl" }
%"struct.std::_Rb_tree<cvc5::internal::TypeNode, std::pair<const cvc5::internal::TypeNode, std::map<int, std::vector<cvc5::internal::NodeTemplate<true>>>>, std::_Select1st<std::pair<const cvc5::internal::TypeNode, std::map<int, std::vector<cvc5::internal::NodeTemplate<true>>>>>, std::less<cvc5::internal::TypeNode>>::_Rb_tree_impl" = type { [8 x i8], %"struct.std::_Rb_tree_header" }
%"class.std::map.23" = type { %"class.std::_Rb_tree.24" }
%"class.std::_Rb_tree.24" = type { %"struct.std::_Rb_tree<cvc5::internal::NodeTemplate<true>, std::pair<const cvc5::internal::NodeTemplate<true>, int>, std::_Select1st<std::pair<const cvc5::internal::NodeTemplate<true>, int>>, std::less<cvc5::internal::NodeTemplate<true>>>::_Rb_tree_impl" }
%"struct.std::_Rb_tree<cvc5::internal::NodeTemplate<true>, std::pair<const cvc5::internal::NodeTemplate<true>, int>, std::_Select1st<std::pair<const cvc5::internal::NodeTemplate<true>, int>>, std::less<cvc5::internal::NodeTemplate<true>>>::_Rb_tree_impl" = type { [8 x i8], %"struct.std::_Rb_tree_header" }
%"class.cvc5::internal::TypeNode" = type { ptr }
%"class.std::vector" = type { %"struct.std::_Vector_base" }
%"struct.std::_Vector_base" = type { %"struct.std::_Vector_base<cvc5::internal::theory::uf::CardinalityExtension::SortModel::Region *, std::allocator<cvc5::internal::theory::uf::CardinalityExtension::SortModel::Region *>>::_Vector_impl" }
%"struct.std::_Vector_base<cvc5::internal::theory::uf::CardinalityExtension::SortModel::Region *, std::allocator<cvc5::internal::theory::uf::CardinalityExtension::SortModel::Region *>>::_Vector_impl" = type { %"struct.std::_Vector_base<cvc5::internal::theory::uf::CardinalityExtension::SortModel::Region *, std::allocator<cvc5::internal::theory::uf::CardinalityExtension::SortModel::Region *>>::_Vector_impl_data" }
%"struct.std::_Vector_base<cvc5::internal::theory::uf::CardinalityExtension::SortModel::Region *, std::allocator<cvc5::internal::theory::uf::CardinalityExtension::SortModel::Region *>>::_Vector_impl_data" = type { ptr, ptr, ptr }
%"class.cvc5::context::CDHashMap.31" = type { %"class.cvc5::context::ContextObj", %"class.std::unordered_map.32", ptr, ptr }
%"class.std::unordered_map.32" = type { %"class.std::_Hashtable.33" }
%"class.std::_Hashtable.33" = type { ptr, i64, %"struct.std::__detail::_Hash_node_base", i64, %"struct.std::__detail::_Prime_rehash_policy", ptr }
%"class.std::map.51" = type { %"class.std::_Rb_tree.52" }
%"class.std::_Rb_tree.52" = type { %"struct.std::_Rb_tree<unsigned int, std::pair<const unsigned int, cvc5::internal::NodeTemplate<true>>, std::_Select1st<std::pair<const unsigned int, cvc5::internal::NodeTemplate<true>>>, std::less<unsigned int>>::_Rb_tree_impl" }
%"struct.std::_Rb_tree<unsigned int, std::pair<const unsigned int, cvc5::internal::NodeTemplate<true>>, std::_Select1st<std::pair<const unsigned int, cvc5::internal::NodeTemplate<true>>>, std::less<unsigned int>>::_Rb_tree_impl" = type { [8 x i8], %"struct.std::_Rb_tree_header" }
%"class.std::map.57" = type { %"class.std::_Rb_tree.58" }
%"class.std::_Rb_tree.58" = type { %"struct.std::_Rb_tree<int, std::pair<const int, std::vector<std::vector<cvc5::internal::NodeTemplate<true>>>>, std::_Select1st<std::pair<const int, std::vector<std::vector<cvc5::internal::NodeTemplate<true>>>>>, std::less<int>>::_Rb_tree_impl" }
%"struct.std::_Rb_tree<int, std::pair<const int, std::vector<std::vector<cvc5::internal::NodeTemplate<true>>>>, std::_Select1st<std::pair<const int, std::vector<std::vector<cvc5::internal::NodeTemplate<true>>>>>, std::less<int>>::_Rb_tree_impl" = type { [8 x i8], %"struct.std::_Rb_tree_header" }
%"class.std::vector.46" = type { %"struct.std::_Vector_base.47" }
%"struct.std::_Vector_base.47" = type { %"struct.std::_Vector_base<cvc5::internal::NodeTemplate<true>, std::allocator<cvc5::internal::NodeTemplate<true>>>::_Vector_impl" }
%"struct.std::_Vector_base<cvc5::internal::NodeTemplate<true>, std::allocator<cvc5::internal::NodeTemplate<true>>>::_Vector_impl" = type { %"struct.std::_Vector_base<cvc5::internal::NodeTemplate<true>, std::allocator<cvc5::internal::NodeTemplate<true>>>::_Vector_impl_data" }
%"struct.std::_Vector_base<cvc5::internal::NodeTemplate<true>, std::allocator<cvc5::internal::NodeTemplate<true>>>::_Vector_impl_data" = type { ptr, ptr, ptr }
%"class.std::unique_ptr" = type { %"struct.std::__uniq_ptr_data" }
%"struct.std::__uniq_ptr_data" = type { %"class.std::__uniq_ptr_impl" }
%"class.std::__uniq_ptr_impl" = type { %"class.std::tuple" }
%"class.std::tuple" = type { %"struct.std::_Tuple_impl" }
%"struct.std::_Tuple_impl" = type { %"struct.std::_Head_base.64" }
%"struct.std::_Head_base.64" = type { ptr }
%"class.cvc5::context::Scope" = type { ptr, ptr, i32, ptr, %"class.std::vector.927" }
%"class.std::vector.927" = type { %"struct.std::_Vector_base.928" }
%"struct.std::_Vector_base.928" = type { %"struct.std::_Vector_base<cvc5::context::ContextObj *, std::allocator<cvc5::context::ContextObj *>>::_Vector_impl" }
%"struct.std::_Vector_base<cvc5::context::ContextObj *, std::allocator<cvc5::context::ContextObj *>>::_Vector_impl" = type { %"struct.std::_Vector_base<cvc5::context::ContextObj *, std::allocator<cvc5::context::ContextObj *>>::_Vector_impl_data" }
%"struct.std::_Vector_base<cvc5::context::ContextObj *, std::allocator<cvc5::context::ContextObj *>>::_Vector_impl_data" = type { ptr, ptr, ptr }
%"class.cvc5::context::Context" = type { ptr, %"class.std::vector.503", ptr, ptr }
%"class.std::vector.503" = type { %"struct.std::_Vector_base.504" }
%"struct.std::_Vector_base.504" = type { %"struct.std::_Vector_base<cvc5::context::Scope *, std::allocator<cvc5::context::Scope *>>::_Vector_impl" }
%"struct.std::_Vector_base<cvc5::context::Scope *, std::allocator<cvc5::context::Scope *>>::_Vector_impl" = type { %"struct.std::_Vector_base<cvc5::context::Scope *, std::allocator<cvc5::context::Scope *>>::_Vector_impl_data" }
%"struct.std::_Vector_base<cvc5::context::Scope *, std::allocator<cvc5::context::Scope *>>::_Vector_impl_data" = type { ptr, ptr, ptr }
%"class.__gnu_cxx::__normal_iterator.932" = type { ptr }

; Function Attrs: mustprogress nounwind uwtable
define linkonce_odr hidden void @_ZN9__gnu_cxx17__normal_iteratorIPKPN4cvc57context5ScopeESt6vectorIS4_SaIS4_EEEC2ERKS6_(ptr noundef nonnull align 8 dereferenceable(8) %0, ptr noundef nonnull align 8 dereferenceable(8) %1) unnamed_addr #4 comdat align 2 {
  %3 = alloca ptr, align 8
  %4 = alloca ptr, align 8
  store ptr %0, ptr %3, align 8, !tbaa !750
  store ptr %1, ptr %4, align 8, !tbaa !756
  %5 = load ptr, ptr %3, align 8
  %6 = getelementptr inbounds nuw %"class.__gnu_cxx::__normal_iterator.932", ptr %5, i32 0, i32 0
  %7 = load ptr, ptr %4, align 8, !tbaa !756
  %8 = load ptr, ptr %7, align 8, !tbaa !755
  store ptr %8, ptr %6, align 8, !tbaa !752
  ret void
}

; Function Attrs: mustprogress nounwind uwtable
define linkonce_odr hidden noundef nonnull align 8 dereferenceable(8) ptr @_ZNK9__gnu_cxx17__normal_iteratorIPKPN4cvc57context5ScopeESt6vectorIS4_SaIS4_EEEdeEv(ptr noundef nonnull align 8 dereferenceable(8) %0) #4 comdat align 2 {
  %2 = alloca ptr, align 8
  store ptr %0, ptr %2, align 8, !tbaa !750
  %3 = load ptr, ptr %2, align 8
  %4 = getelementptr inbounds nuw %"class.__gnu_cxx::__normal_iterator.932", ptr %3, i32 0, i32 0
  %5 = load ptr, ptr %4, align 8, !tbaa !752
  ret ptr %5
}

; Function Attrs: mustprogress nounwind uwtable
define linkonce_odr hidden ptr @_ZNK9__gnu_cxx17__normal_iteratorIPKPN4cvc57context5ScopeESt6vectorIS4_SaIS4_EEEmiEl(ptr noundef nonnull align 8 dereferenceable(8) %0, i64 noundef %1) #4 comdat align 2 {
  %3 = alloca %"class.__gnu_cxx::__normal_iterator.932", align 8
  %4 = alloca ptr, align 8
  %5 = alloca i64, align 8
  %6 = alloca ptr, align 8
  store ptr %0, ptr %4, align 8, !tbaa !750
  store i64 %1, ptr %5, align 8, !tbaa !8
  %7 = load ptr, ptr %4, align 8
  call void @llvm.lifetime.start.p0(i64 8, ptr %6) #3
  %8 = getelementptr inbounds nuw %"class.__gnu_cxx::__normal_iterator.932", ptr %7, i32 0, i32 0
  %9 = load ptr, ptr %8, align 8, !tbaa !752
  %10 = load i64, ptr %5, align 8, !tbaa !8
  %11 = sub i64 0, %10
  %12 = getelementptr inbounds ptr, ptr %9, i64 %11
  store ptr %12, ptr %6, align 8, !tbaa !755
  call void @_ZN9__gnu_cxx17__normal_iteratorIPKPN4cvc57context5ScopeESt6vectorIS4_SaIS4_EEEC2ERKS6_(ptr noundef nonnull align 8 dereferenceable(8) %3, ptr noundef nonnull align 8 dereferenceable(8) %6) #3
  call void @llvm.lifetime.end.p0(i64 8, ptr %6) #3
  %13 = getelementptr inbounds nuw %"class.__gnu_cxx::__normal_iterator.932", ptr %3, i32 0, i32 0
  %14 = load ptr, ptr %13, align 8
  ret ptr %14
}

; Function Attrs: mustprogress nounwind uwtable
define linkonce_odr hidden ptr @_ZNKSt6vectorIPN4cvc57context5ScopeESaIS3_EE3endEv(ptr noundef nonnull align 8 dereferenceable(24) %0) #4 comdat align 2 {
  %2 = alloca %"class.__gnu_cxx::__normal_iterator.932", align 8
  %3 = alloca ptr, align 8
  store ptr %0, ptr %3, align 8, !tbaa !748
  %4 = load ptr, ptr %3, align 8
  %5 = getelementptr inbounds nuw %"struct.std::_Vector_base.504", ptr %4, i32 0, i32 0
  %6 = getelementptr inbounds nuw %"struct.std::_Vector_base<cvc5::context::Scope *, std::allocator<cvc5::context::Scope *>>::_Vector_impl_data", ptr %5, i32 0, i32 1
  call void @_ZN9__gnu_cxx17__normal_iteratorIPKPN4cvc57context5ScopeESt6vectorIS4_SaIS4_EEEC2ERKS6_(ptr noundef nonnull align 8 dereferenceable(8) %2, ptr noundef nonnull align 8 dereferenceable(8) %6) #3
  %7 = getelementptr inbounds nuw %"class.__gnu_cxx::__normal_iterator.932", ptr %2, i32 0, i32 0
  %8 = load ptr, ptr %7, align 8
  ret ptr %8
}

; Function Attrs: mustprogress nounwind uwtable
define linkonce_odr hidden noundef nonnull align 8 dereferenceable(8) ptr @_ZNKSt6vectorIPN4cvc57context5ScopeESaIS3_EE4backEv(ptr noundef nonnull align 8 dereferenceable(24) %0) #4 comdat align 2 {
  %2 = alloca ptr, align 8
  %3 = alloca %"class.__gnu_cxx::__normal_iterator.932", align 8
  %4 = alloca %"class.__gnu_cxx::__normal_iterator.932", align 8
  store ptr %0, ptr %2, align 8, !tbaa !748
  %5 = load ptr, ptr %2, align 8
  call void @llvm.lifetime.start.p0(i64 8, ptr %3) #3
  call void @llvm.lifetime.start.p0(i64 8, ptr %4) #3
  %6 = call ptr @_ZNKSt6vectorIPN4cvc57context5ScopeESaIS3_EE3endEv(ptr noundef nonnull align 8 dereferenceable(24) %5) #3
  %7 = getelementptr inbounds nuw %"class.__gnu_cxx::__normal_iterator.932", ptr %4, i32 0, i32 0
  store ptr %6, ptr %7, align 8
  %8 = call ptr @_ZNK9__gnu_cxx17__normal_iteratorIPKPN4cvc57context5ScopeESt6vectorIS4_SaIS4_EEEmiEl(ptr noundef nonnull align 8 dereferenceable(8) %4, i64 noundef 1) #3
  %9 = getelementptr inbounds nuw %"class.__gnu_cxx::__normal_iterator.932", ptr %3, i32 0, i32 0
  store ptr %8, ptr %9, align 8
  %10 = call noundef nonnull align 8 dereferenceable(8) ptr @_ZNK9__gnu_cxx17__normal_iteratorIPKPN4cvc57context5ScopeESt6vectorIS4_SaIS4_EEEdeEv(ptr noundef nonnull align 8 dereferenceable(8) %3) #3
  call void @llvm.lifetime.end.p0(i64 8, ptr %4) #3
  call void @llvm.lifetime.end.p0(i64 8, ptr %3) #3
  ret ptr %10
}

; Function Attrs: mustprogress nounwind uwtable
define linkonce_odr hidden noundef nonnull align 8 dereferenceable(8) ptr @_ZNSt10_Head_baseILm0EPN4cvc58internal6theory2uf20CardinalityExtension9SortModel27CardinalityDecisionStrategyELb0EE7_M_headERKS8_(ptr noundef nonnull align 8 dereferenceable(8) %0) #4 comdat align 2 {
  %2 = alloca ptr, align 8
  store ptr %0, ptr %2, align 8, !tbaa !851
  %3 = load ptr, ptr %2, align 8, !tbaa !851
  %4 = getelementptr inbounds nuw %"struct.std::_Head_base.64", ptr %3, i32 0, i32 0
  ret ptr %4
}

; Function Attrs: mustprogress nounwind uwtable
define linkonce_odr hidden noundef ptr @_ZNK4cvc57context7Context11getTopScopeEv(ptr noundef nonnull align 8 dereferenceable(48) %0) #4 comdat align 2 {
  %2 = alloca ptr, align 8
  store ptr %0, ptr %2, align 8, !tbaa !20
  %3 = load ptr, ptr %2, align 8
  %4 = getelementptr inbounds nuw %"class.cvc5::context::Context", ptr %3, i32 0, i32 1
  %5 = call noundef nonnull align 8 dereferenceable(8) ptr @_ZNKSt6vectorIPN4cvc57context5ScopeESaIS3_EE4backEv(ptr noundef nonnull align 8 dereferenceable(24) %4) #3
  %6 = load ptr, ptr %5, align 8, !tbaa !741
  ret ptr %6
}

; Function Attrs: mustprogress nounwind uwtable
define linkonce_odr hidden noundef nonnull align 8 dereferenceable(8) ptr @_ZNSt11_Tuple_implILm0EJPN4cvc58internal6theory2uf20CardinalityExtension9SortModel27CardinalityDecisionStrategyESt14default_deleteIS6_EEE7_M_headERKSA_(ptr noundef nonnull align 8 dereferenceable(8) %0) #4 comdat align 2 {
  %2 = alloca ptr, align 8
  store ptr %0, ptr %2, align 8, !tbaa !847
  %3 = load ptr, ptr %2, align 8, !tbaa !847
  %4 = call noundef nonnull align 8 dereferenceable(8) ptr @_ZNSt10_Head_baseILm0EPN4cvc58internal6theory2uf20CardinalityExtension9SortModel27CardinalityDecisionStrategyELb0EE7_M_headERKS8_(ptr noundef nonnull align 8 dereferenceable(8) %3) #3
  ret ptr %4
}

; Function Attrs: mustprogress uwtable
define linkonce_odr hidden noundef zeroext i1 @_ZNK4cvc57context5Scope9isCurrentEv(ptr noundef nonnull align 8 dereferenceable(56) %0) #6 comdat align 2 {
  %2 = alloca ptr, align 8
  store ptr %0, ptr %2, align 8, !tbaa !741
  %3 = load ptr, ptr %2, align 8
  %4 = getelementptr inbounds nuw %"class.cvc5::context::Scope", ptr %3, i32 0, i32 0
  %5 = load ptr, ptr %4, align 8, !tbaa !742
  %6 = call noundef ptr @_ZNK4cvc57context7Context11getTopScopeEv(ptr noundef nonnull align 8 dereferenceable(48) %5)
  %7 = icmp eq ptr %3, %6
  ret i1 %7
}

; Function Attrs: mustprogress nounwind uwtable
define linkonce_odr hidden noundef nonnull align 8 dereferenceable(8) ptr @_ZSt12__get_helperILm0EPN4cvc58internal6theory2uf20CardinalityExtension9SortModel27CardinalityDecisionStrategyEJSt14default_deleteIS6_EEERKT0_RKSt11_Tuple_implIXT_EJSA_DpT1_EE(ptr noundef nonnull align 8 dereferenceable(8) %0) #4 comdat {
  %2 = alloca ptr, align 8
  store ptr %0, ptr %2, align 8, !tbaa !847
  %3 = load ptr, ptr %2, align 8, !tbaa !847
  %4 = call noundef nonnull align 8 dereferenceable(8) ptr @_ZNSt11_Tuple_implILm0EJPN4cvc58internal6theory2uf20CardinalityExtension9SortModel27CardinalityDecisionStrategyESt14default_deleteIS6_EEE7_M_headERKSA_(ptr noundef nonnull align 8 dereferenceable(8) %3) #3
  ret ptr %4
}

; Function Attrs: inlinehint mustprogress uwtable
define linkonce_odr hidden void @_ZN4cvc57context10ContextObj11makeCurrentEv(ptr noundef nonnull align 8 dereferenceable(40) %0) #9 comdat align 2 {
  %2 = alloca ptr, align 8
  store ptr %0, ptr %2, align 8, !tbaa !737
  %3 = load ptr, ptr %2, align 8
  %4 = getelementptr inbounds nuw %"class.cvc5::context::ContextObj", ptr %3, i32 0, i32 1
  %5 = load ptr, ptr %4, align 8, !tbaa !740
  %6 = call noundef zeroext i1 @_ZNK4cvc57context5Scope9isCurrentEv(ptr noundef nonnull align 8 dereferenceable(56) %5)
  br i1 %6, label %8, label %7

7:                                                ; preds = %1
  call void @_ZN4cvc57context10ContextObj6updateEv(ptr noundef nonnull align 8 dereferenceable(40) %3)
  br label %8

8:                                                ; preds = %7, %1
  ret void
}

; Function Attrs: mustprogress nounwind uwtable
define linkonce_odr hidden noundef nonnull align 8 dereferenceable(8) ptr @_ZSt3getILm0EJPN4cvc58internal6theory2uf20CardinalityExtension9SortModel27CardinalityDecisionStrategyESt14default_deleteIS6_EEERKNSt13tuple_elementIXT_ESt5tupleIJDpT0_EEE4typeERKSE_(ptr noundef nonnull align 8 dereferenceable(8) %0) #4 comdat {
  %2 = alloca ptr, align 8
  store ptr %0, ptr %2, align 8, !tbaa !845
  %3 = load ptr, ptr %2, align 8, !tbaa !845
  %4 = call noundef nonnull align 8 dereferenceable(8) ptr @_ZSt12__get_helperILm0EPN4cvc58internal6theory2uf20CardinalityExtension9SortModel27CardinalityDecisionStrategyEJSt14default_deleteIS6_EEERKT0_RKSt11_Tuple_implIXT_EJSA_DpT1_EE(ptr noundef nonnull align 8 dereferenceable(8) %3) #3
  ret ptr %4
}

; Function Attrs: mustprogress uwtable
define linkonce_odr hidden void @_ZN4cvc57context3CDOIbE3setERKb(ptr noundef nonnull align 8 dereferenceable(41) %0, ptr noundef nonnull align 1 dereferenceable(1) %1) #6 comdat align 2 {
  %3 = alloca ptr, align 8
  %4 = alloca ptr, align 8
  store ptr %0, ptr %3, align 8, !tbaa !69
  store ptr %1, ptr %4, align 8, !tbaa !71
  %5 = load ptr, ptr %3, align 8
  call void @_ZN4cvc57context10ContextObj11makeCurrentEv(ptr noundef nonnull align 8 dereferenceable(40) %5)
  %6 = load ptr, ptr %4, align 8, !tbaa !71
  %7 = load i8, ptr %6, align 1, !tbaa !10, !range !12, !noundef !13
  %8 = trunc i8 %7 to i1
  %9 = getelementptr inbounds nuw %"class.cvc5::context::CDO.6", ptr %5, i32 0, i32 1
  %10 = zext i1 %8 to i8
  store i8 %10, ptr %9, align 8, !tbaa !73
  ret void
}

; Function Attrs: mustprogress nounwind uwtable
define linkonce_odr hidden noundef nonnull align 1 dereferenceable(1) ptr @_ZNK4cvc57context3CDOIbE3getEv(ptr noundef nonnull align 8 dereferenceable(41) %0) #4 comdat align 2 {
  %2 = alloca ptr, align 8
  store ptr %0, ptr %2, align 8, !tbaa !69
  %3 = load ptr, ptr %2, align 8
  %4 = getelementptr inbounds nuw %"class.cvc5::context::CDO.6", ptr %3, i32 0, i32 1
  ret ptr %4
}

; Function Attrs: mustprogress nounwind uwtable
define linkonce_odr hidden noundef ptr @_ZNKSt15__uniq_ptr_implIN4cvc58internal6theory2uf20CardinalityExtension9SortModel27CardinalityDecisionStrategyESt14default_deleteIS6_EE6_M_ptrEv(ptr noundef nonnull align 8 dereferenceable(8) %0) #4 comdat align 2 {
  %2 = alloca ptr, align 8
  store ptr %0, ptr %2, align 8, !tbaa !843
  %3 = load ptr, ptr %2, align 8
  %4 = getelementptr inbounds nuw %"class.std::__uniq_ptr_impl", ptr %3, i32 0, i32 0
  %5 = call noundef nonnull align 8 dereferenceable(8) ptr @_ZSt3getILm0EJPN4cvc58internal6theory2uf20CardinalityExtension9SortModel27CardinalityDecisionStrategyESt14default_deleteIS6_EEERKNSt13tuple_elementIXT_ESt5tupleIJDpT0_EEE4typeERKSE_(ptr noundef nonnull align 8 dereferenceable(8) %4) #3
  %6 = load ptr, ptr %5, align 8, !tbaa !273
  ret ptr %6
}

; Function Attrs: mustprogress uwtable
define linkonce_odr hidden noundef nonnull align 8 dereferenceable(41) ptr @_ZN4cvc57context3CDOIbEaSERKb(ptr noundef nonnull align 8 dereferenceable(41) %0, ptr noundef nonnull align 1 dereferenceable(1) %1) #6 comdat align 2 {
  %3 = alloca ptr, align 8
  %4 = alloca ptr, align 8
  store ptr %0, ptr %3, align 8, !tbaa !69
  store ptr %1, ptr %4, align 8, !tbaa !71
  %5 = load ptr, ptr %3, align 8
  %6 = load ptr, ptr %4, align 8, !tbaa !71
  call void @_ZN4cvc57context3CDOIbE3setERKb(ptr noundef nonnull align 8 dereferenceable(41) %5, ptr noundef nonnull align 1 dereferenceable(1) %6)
  ret ptr %5
}

; Function Attrs: mustprogress uwtable
define linkonce_odr hidden noundef zeroext i1 @_ZN4cvc57context3CDOIbEcvbEv(ptr noundef nonnull align 8 dereferenceable(41) %0) #6 comdat align 2 {
  %2 = alloca ptr, align 8
  store ptr %0, ptr %2, align 8, !tbaa !69
  %3 = load ptr, ptr %2, align 8
  %4 = call noundef nonnull align 1 dereferenceable(1) ptr @_ZNK4cvc57context3CDOIbE3getEv(ptr noundef nonnull align 8 dereferenceable(41) %3)
  %5 = load i8, ptr %4, align 1, !tbaa !10, !range !12, !noundef !13
  %6 = trunc i8 %5 to i1
  ret i1 %6
}

; Function Attrs: mustprogress nounwind uwtable
define linkonce_odr hidden noundef ptr @_ZNKSt10unique_ptrIN4cvc58internal6theory2uf20CardinalityExtension9SortModel27CardinalityDecisionStrategyESt14default_deleteIS6_EE3getEv(ptr noundef nonnull align 8 dereferenceable(8) %0) #4 comdat align 2 {
  %2 = alloca ptr, align 8
  store ptr %0, ptr %2, align 8, !tbaa !490
  %3 = load ptr, ptr %2, align 8
  %4 = getelementptr inbounds nuw %"class.std::unique_ptr", ptr %3, i32 0, i32 0
  %5 = call noundef ptr @_ZNKSt15__uniq_ptr_implIN4cvc58internal6theory2uf20CardinalityExtension9SortModel27CardinalityDecisionStrategyESt14default_deleteIS6_EE6_M_ptrEv(ptr noundef nonnull align 8 dereferenceable(8) %4) #3
  ret ptr %5
}

; Function Attrs: mustprogress uwtable
define hidden void @_ZN4cvc58internal6theory2uf20CardinalityExtension9SortModel10initializeEv(ptr noundef nonnull align 8 dereferenceable(928) %0) #6 align 2 {
  %2 = alloca ptr, align 8
  %3 = alloca i8, align 1
  store ptr %0, ptr %2, align 8, !tbaa !18
  %4 = load ptr, ptr %2, align 8
  %5 = getelementptr inbounds nuw %"class.cvc5::internal::theory::uf::CardinalityExtension::SortModel", ptr %4, i32 0, i32 22
  %6 = call noundef ptr @_ZNKSt10unique_ptrIN4cvc58internal6theory2uf20CardinalityExtension9SortModel27CardinalityDecisionStrategyESt14default_deleteIS6_EE3getEv(ptr noundef nonnull align 8 dereferenceable(8) %5) #3
  %7 = icmp ne ptr %6, null
  br i1 %7, label %8, label %19

8:                                                ; preds = %1
  %9 = getelementptr inbounds nuw %"class.cvc5::internal::theory::uf::CardinalityExtension::SortModel", ptr %4, i32 0, i32 21
  %10 = call noundef zeroext i1 @_ZN4cvc57context3CDOIbEcvbEv(ptr noundef nonnull align 8 dereferenceable(41) %9)
  br i1 %10, label %19, label %11

11:                                               ; preds = %8
  call void @llvm.lifetime.start.p0(i64 1, ptr %3) #3
  store i8 1, ptr %3, align 1, !tbaa !10
  %12 = getelementptr inbounds nuw %"class.cvc5::internal::theory::uf::CardinalityExtension::SortModel", ptr %4, i32 0, i32 21
  %13 = call noundef nonnull align 8 dereferenceable(41) ptr @_ZN4cvc57context3CDOIbEaSERKb(ptr noundef nonnull align 8 dereferenceable(41) %12, ptr noundef nonnull align 1 dereferenceable(1) %3)
  call void @llvm.lifetime.end.p0(i64 1, ptr %3) #3
  %14 = getelementptr inbounds nuw %"class.cvc5::internal::theory::uf::CardinalityExtension::SortModel", ptr %4, i32 0, i32 6
  %15 = load ptr, ptr %14, align 8, !tbaa !523
  %16 = call noundef ptr @_ZN4cvc58internal6theory22TheoryInferenceManager18getDecisionManagerEv(ptr noundef nonnull align 8 dereferenceable(240) %15)
  %17 = getelementptr inbounds nuw %"class.cvc5::internal::theory::uf::CardinalityExtension::SortModel", ptr %4, i32 0, i32 22
  %18 = call noundef ptr @_ZNKSt10unique_ptrIN4cvc58internal6theory2uf20CardinalityExtension9SortModel27CardinalityDecisionStrategyESt14default_deleteIS6_EE3getEv(ptr noundef nonnull align 8 dereferenceable(8) %17) #3
  call void @_ZN4cvc58internal6theory15DecisionManager16registerStrategyENS2_10StrategyIdEPNS1_16DecisionStrategyENS2_13StrategyScopeE(ptr noundef nonnull align 8 dereferenceable(184) %16, i32 noundef 5, ptr noundef %18, i32 noundef 0)
  br label %19

19:                                               ; preds = %11, %8, %1
  ret void
}